target datalayout = "e-m:e-p270:32:32-p271:32:32-p272:64:64-i64:64-i128:128-f80:128-n8:16:32:64-S128"
target triple = "x86_64-pc-linux-gnu"

%struct.PJ_XYZ = type { double, double, double }

; Function Attrs: mustprogress uwtable
define internal void @_ZL28pj_deformation_reverse_shiftP8PJconstsRK6PJ_XYZd(ptr dead_on_unwind noalias writable sret(%struct.PJ_XYZ) align 8 %0, ptr noundef %1, ptr noundef nonnull align 8 dereferenceable(24) %2, double noundef %3) #0 {
  %5 = alloca ptr, align 8
  %6 = alloca ptr, align 8
  %7 = alloca double, align 8
  %8 = alloca %struct.PJ_XYZ, align 8
  %9 = alloca %struct.PJ_XYZ, align 8
  %10 = alloca %struct.PJ_XYZ, align 8
  %11 = alloca double, align 8
  %12 = alloca i32, align 4
  %13 = alloca %struct.PJ_XYZ, align 8
  %14 = alloca i32, align 4
  %15 = alloca %struct.PJ_XYZ, align 8
  store ptr %1, ptr %5, align 8, !tbaa !3
  store ptr %2, ptr %6, align 8, !tbaa !120
  store double %3, ptr %7, align 8, !tbaa !89
  call void @llvm.lifetime.start.p0(i64 24, ptr %8) #13
  call void @llvm.lifetime.start.p0(i64 24, ptr %9) #13
  call void @llvm.lifetime.start.p0(i64 24, ptr %10) #13
  call void @llvm.lifetime.start.p0(i64 8, ptr %11) #13
  call void @llvm.lifetime.start.p0(i64 4, ptr %12) #13
  store i32 10, ptr %12, align 4, !tbaa !65
  call void @llvm.lifetime.start.p0(i64 24, ptr %13) #13
  %16 = load ptr, ptr %5, align 8, !tbaa !3
  %17 = load ptr, ptr %6, align 8, !tbaa !120
  call void @_ZL29pj_deformation_get_grid_shiftP8PJconstsRK6PJ_XYZ(ptr dead_on_unwind writable sret(%struct.PJ_XYZ) align 8 %13, ptr noundef %16, ptr noundef nonnull align 8 dereferenceable(24) %17)
  call void @llvm.memcpy.p0.p0.i64(ptr align 8 %9, ptr align 8 %13, i64 24, i1 false), !tbaa.struct !91
  call void @llvm.lifetime.end.p0(i64 24, ptr %13) #13
  %18 = getelementptr inbounds nuw %struct.PJ_XYZ, ptr %9, i32 0, i32 0
  %19 = load double, ptr %18, align 8, !tbaa !92
  %20 = fcmp oeq double %19, 0x7FF0000000000000
  br i1 %20, label %21, label %22

21:                                               ; preds = %4
  call void @llvm.memcpy.p0.p0.i64(ptr align 8 %0, ptr align 8 %9, i64 24, i1 false), !tbaa.struct !91
  store i32 1, ptr %14, align 4
  br label %129

22:                                               ; preds = %4
  %23 = getelementptr inbounds nuw %struct.PJ_XYZ, ptr %9, i32 0, i32 2
  %24 = load double, ptr %23, align 8, !tbaa !95
  store double %24, ptr %11, align 8, !tbaa !89
  %25 = load ptr, ptr %6, align 8, !tbaa !120
  %26 = getelementptr inbounds nuw %struct.PJ_XYZ, ptr %25, i32 0, i32 0
  %27 = load double, ptr %26, align 8, !tbaa !92
  %28 = load double, ptr %7, align 8, !tbaa !89
  %29 = getelementptr inbounds nuw %struct.PJ_XYZ, ptr %9, i32 0, i32 0
  %30 = load double, ptr %29, align 8, !tbaa !92
  %31 = fneg double %28
  %32 = call double @llvm.fmuladd.f64(double %31, double %30, double %27)
  %33 = getelementptr inbounds nuw %struct.PJ_XYZ, ptr %8, i32 0, i32 0
  store double %32, ptr %33, align 8, !tbaa !92
  %34 = load ptr, ptr %6, align 8, !tbaa !120
  %35 = getelementptr inbounds nuw %struct.PJ_XYZ, ptr %34, i32 0, i32 1
  %36 = load double, ptr %35, align 8, !tbaa !94
  %37 = load double, ptr %7, align 8, !tbaa !89
  %38 = getelementptr inbounds nuw %struct.PJ_XYZ, ptr %9, i32 0, i32 1
  %39 = load double, ptr %38, align 8, !tbaa !94
  %40 = fneg double %37
  %41 = call double @llvm.fmuladd.f64(double %40, double %39, double %36)
  %42 = getelementptr inbounds nuw %struct.PJ_XYZ, ptr %8, i32 0, i32 1
  store double %41, ptr %42, align 8, !tbaa !94
  %43 = load ptr, ptr %6, align 8, !tbaa !120
  %44 = getelementptr inbounds nuw %struct.PJ_XYZ, ptr %43, i32 0, i32 2
  %45 = load double, ptr %44, align 8, !tbaa !95
  %46 = load double, ptr %7, align 8, !tbaa !89
  %47 = getelementptr inbounds nuw %struct.PJ_XYZ, ptr %9, i32 0, i32 2
  %48 = load double, ptr %47, align 8, !tbaa !95
  %49 = call double @llvm.fmuladd.f64(double %46, double %48, double %45)
  %50 = getelementptr inbounds nuw %struct.PJ_XYZ, ptr %8, i32 0, i32 2
  store double %49, ptr %50, align 8, !tbaa !95
  br label %51

51:                                               ; preds = %118, %22
  call void @llvm.lifetime.start.p0(i64 24, ptr %15) #13
  %52 = load ptr, ptr %5, align 8, !tbaa !3
  call void @_ZL29pj_deformation_get_grid_shiftP8PJconstsRK6PJ_XYZ(ptr dead_on_unwind writable sret(%struct.PJ_XYZ) align 8 %15, ptr noundef %52, ptr noundef nonnull align 8 dereferenceable(24) %8)
  call void @llvm.memcpy.p0.p0.i64(ptr align 8 %9, ptr align 8 %15, i64 24, i1 false), !tbaa.struct !91
  call void @llvm.lifetime.end.p0(i64 24, ptr %15) #13
  %53 = getelementptr inbounds nuw %struct.PJ_XYZ, ptr %9, i32 0, i32 0
  %54 = load double, ptr %53, align 8, !tbaa !92
  %55 = fcmp oeq double %54, 0x7FF0000000000000
  br i1 %55, label %56, label %57

56:                                               ; preds = %51
  br label %120

57:                                               ; preds = %51
  %58 = getelementptr inbounds nuw %struct.PJ_XYZ, ptr %8, i32 0, i32 0
  %59 = load double, ptr %58, align 8, !tbaa !92
  %60 = load double, ptr %7, align 8, !tbaa !89
  %61 = getelementptr inbounds nuw %struct.PJ_XYZ, ptr %9, i32 0, i32 0
  %62 = load double, ptr %61, align 8, !tbaa !92
  %63 = call double @llvm.fmuladd.f64(double %60, double %62, double %59)
  %64 = load ptr, ptr %6, align 8, !tbaa !120
  %65 = getelementptr inbounds nuw %struct.PJ_XYZ, ptr %64, i32 0, i32 0
  %66 = load double, ptr %65, align 8, !tbaa !92
  %67 = fsub double %63, %66
  %68 = getelementptr inbounds nuw %struct.PJ_XYZ, ptr %10, i32 0, i32 0
  store double %67, ptr %68, align 8, !tbaa !92
  %69 = getelementptr inbounds nuw %struct.PJ_XYZ, ptr %8, i32 0, i32 1
  %70 = load double, ptr %69, align 8, !tbaa !94
  %71 = load double, ptr %7, align 8, !tbaa !89
  %72 = getelementptr inbounds nuw %struct.PJ_XYZ, ptr %9, i32 0, i32 1
  %73 = load double, ptr %72, align 8, !tbaa !94
  %74 = call double @llvm.fmuladd.f64(double %71, double %73, double %70)
  %75 = load ptr, ptr %6, align 8, !tbaa !120
  %76 = getelementptr inbounds nuw %struct.PJ_XYZ, ptr %75, i32 0, i32 1
  %77 = load double, ptr %76, align 8, !tbaa !94
  %78 = fsub double %74, %77
  %79 = getelementptr inbounds nuw %struct.PJ_XYZ, ptr %10, i32 0, i32 1
  store double %78, ptr %79, align 8, !tbaa !94
  %80 = getelementptr inbounds nuw %struct.PJ_XYZ, ptr %8, i32 0, i32 2
  %81 = load double, ptr %80, align 8, !tbaa !95
  %82 = load double, ptr %7, align 8, !tbaa !89
  %83 = getelementptr inbounds nuw %struct.PJ_XYZ, ptr %9, i32 0, i32 2
  %84 = load double, ptr %83, align 8, !tbaa !95
  %85 = fneg double %82
  %86 = call double @llvm.fmuladd.f64(double %85, double %84, double %81)
  %87 = load ptr, ptr %6, align 8, !tbaa !120
  %88 = getelementptr inbounds nuw %struct.PJ_XYZ, ptr %87, i32 0, i32 2
  %89 = load double, ptr %88, align 8, !tbaa !95
  %90 = fsub double %86, %89
  %91 = getelementptr inbounds nuw %struct.PJ_XYZ, ptr %10, i32 0, i32 2
  store double %90, ptr %91, align 8, !tbaa !95
  %92 = getelementptr inbounds nuw %struct.PJ_XYZ, ptr %10, i32 0, i32 0
  %93 = load double, ptr %92, align 8, !tbaa !92
  %94 = getelementptr inbounds nuw %struct.PJ_XYZ, ptr %8, i32 0, i32 0
  %95 = load double, ptr %94, align 8, !tbaa !92
  %96 = fadd double %95, %93
  store double %96, ptr %94, align 8, !tbaa !92
  %97 = getelementptr inbounds nuw %struct.PJ_XYZ, ptr %10, i32 0, i32 1
  %98 = load double, ptr %97, align 8, !tbaa !94
  %99 = getelementptr inbounds nuw %struct.PJ_XYZ, ptr %8, i32 0, i32 1
  %100 = load double, ptr %99, align 8, !tbaa !94
  %101 = fadd double %100, %98
  store double %101, ptr %99, align 8, !tbaa !94
  %102 = getelementptr inbounds nuw %struct.PJ_XYZ, ptr %10, i32 0, i32 2
  %103 = load double, ptr %102, align 8, !tbaa !95
  %104 = getelementptr inbounds nuw %struct.PJ_XYZ, ptr %8, i32 0, i32 2
  %105 = load double, ptr %104, align 8, !tbaa !95
  %106 = fadd double %105, %103
  store double %106, ptr %104, align 8, !tbaa !95
  br label %107

107:                                              ; preds = %57
  %108 = load i32, ptr %12, align 4, !tbaa !65
  %109 = add nsw i32 %108, -1
  store i32 %109, ptr %12, align 4, !tbaa !65
  %110 = icmp ne i32 %109, 0
  br i1 %110, label %111, label %118

111:                                              ; preds = %107
  %112 = getelementptr inbounds nuw %struct.PJ_XYZ, ptr %10, i32 0, i32 0
  %113 = load double, ptr %112, align 8, !tbaa !92
  %114 = getelementptr inbounds nuw %struct.PJ_XYZ, ptr %10, i32 0, i32 1
  %115 = load double, ptr %114, align 8, !tbaa !94
  %116 = call double @hypot(double noundef %113, double noundef %115) #13, !tbaa !65
  %117 = fcmp ogt double %116, 1.000000e-08
  br label %118

118:                                              ; preds = %111, %107
  %119 = phi i1 [ false, %107 ], [ %117, %111 ]
  br i1 %119, label %51, label %120, !llvm.loop !152

120:                                              ; preds = %118, %56
  %121 = load ptr, ptr %6, align 8, !tbaa !120
  %122 = getelementptr inbounds nuw %struct.PJ_XYZ, ptr %121, i32 0, i32 2
  %123 = load double, ptr %122, align 8, !tbaa !95
  %124 = load double, ptr %7, align 8, !tbaa !89
  %125 = load double, ptr %11, align 8, !tbaa !89
  %126 = fneg double %124
  %127 = call double @llvm.fmuladd.f64(double %126, double %125, double %123)
  %128 = getelementptr inbounds nuw %struct.PJ_XYZ, ptr %8, i32 0, i32 2
  store double %127, ptr %128, align 8, !tbaa !95
  call void @llvm.memcpy.p0.p0.i64(ptr align 8 %0, ptr align 8 %8, i64 24, i1 false), !tbaa.struct !91
  store i32 1, ptr %14, align 4
  br label %129

129:                                              ; preds = %120, %21
  call void @llvm.lifetime.end.p0(i64 4, ptr %12) #13
  call void @llvm.lifetime.end.p0(i64 8, ptr %11) #13
  call void @llvm.lifetime.end.p0(i64 24, ptr %10) #13
  call void @llvm.lifetime.end.p0(i64 24, ptr %9) #13
  call void @llvm.lifetime.end.p0(i64 24, ptr %8) #13
  ret void
}