; Function Attrs: mustprogress uwtable
define internal fastcc void @_ZL28pj_deformation_reverse_shiftP8PJconstsRK6PJ_XYZd(ptr dead_on_unwind noalias nonnull writable writeonly align 8 captures(none) %0, ptr noundef %1, ptr noundef nonnull readonly align 8 captures(none) dereferenceable(24) %2, double noundef %3) unnamed_addr #0 {
  %5 = alloca %struct.PJ_XYZ, align 8
  %6 = alloca %struct.PJ_XYZ, align 8
  %7 = alloca %struct.PJ_XYZ, align 8
  call void @llvm.lifetime.start.p0(i64 24, ptr nonnull %5) #13
  call void @llvm.lifetime.start.p0(i64 24, ptr nonnull %6) #13
  call fastcc void @_ZL29pj_deformation_get_grid_shiftP8PJconstsRK6PJ_XYZ(ptr dead_on_unwind noalias writable align 8 %6, ptr noundef %1, ptr noundef nonnull align 8 dereferenceable(24) %2)
  %.sroa.03.0.copyload = load double, ptr %6, align 8, !tbaa !90
  %.sroa.9.0..sroa_idx = getelementptr inbounds nuw i8, ptr %6, i64 8
  %.sroa.9.0.copyload = load double, ptr %.sroa.9.0..sroa_idx, align 8, !tbaa !90
  %.sroa.11.0..sroa_idx = getelementptr inbounds nuw i8, ptr %6, i64 16
  %.sroa.11.0.copyload = load double, ptr %.sroa.11.0..sroa_idx, align 8, !tbaa !90
  call void @llvm.lifetime.end.p0(i64 24, ptr nonnull %6) #13
  %8 = fcmp oeq double %.sroa.03.0.copyload, 0x7FF0000000000000
  br i1 %8, label %9, label %10

9:                                                ; preds = %4
  store double 0x7FF0000000000000, ptr %0, align 8, !tbaa !90
  %.sroa.9.0..sroa_idx9 = getelementptr inbounds nuw i8, ptr %0, i64 8
  store double %.sroa.9.0.copyload, ptr %.sroa.9.0..sroa_idx9, align 8, !tbaa !90
  %.sroa.11.0..sroa_idx14 = getelementptr inbounds nuw i8, ptr %0, i64 16
  store double %.sroa.11.0.copyload, ptr %.sroa.11.0..sroa_idx14, align 8, !tbaa !90
  br label %44

10:                                               ; preds = %4
  %11 = load double, ptr %2, align 8, !tbaa !100
  %12 = fneg double %3
  %13 = tail call double @llvm.fmuladd.f64(double %12, double %.sroa.03.0.copyload, double %11)
  store double %13, ptr %5, align 8, !tbaa !100
  %14 = getelementptr inbounds nuw i8, ptr %2, i64 8
  %15 = load double, ptr %14, align 8, !tbaa !102
  %16 = tail call double @llvm.fmuladd.f64(double %12, double %.sroa.9.0.copyload, double %15)
  %17 = getelementptr inbounds nuw i8, ptr %5, i64 8
  store double %16, ptr %17, align 8, !tbaa !102
  %18 = getelementptr inbounds nuw i8, ptr %2, i64 16
  %19 = load double, ptr %18, align 8, !tbaa !103
  %20 = tail call double @llvm.fmuladd.f64(double %3, double %.sroa.11.0.copyload, double %19)
  %21 = getelementptr inbounds nuw i8, ptr %5, i64 16
  store double %20, ptr %21, align 8, !tbaa !103
  %.sroa.9.0..sroa_idx11 = getelementptr inbounds nuw i8, ptr %7, i64 8
  %.sroa.11.0..sroa_idx16 = getelementptr inbounds nuw i8, ptr %7, i64 16
  br label %22

22:                                               ; preds = %40, %10
  %23 = phi double [ %20, %10 ], [ %38, %40 ]
  %24 = phi double [ %16, %10 ], [ %37, %40 ]
  %25 = phi double [ %13, %10 ], [ %36, %40 ]
  %.0 = phi i32 [ 10, %10 ], [ %39, %40 ]
  call void @llvm.lifetime.start.p0(i64 24, ptr nonnull %7) #13
  call fastcc void @_ZL29pj_deformation_get_grid_shiftP8PJconstsRK6PJ_XYZ(ptr dead_on_unwind noalias writable align 8 %7, ptr noundef %1, ptr noundef nonnull align 8 dereferenceable(24) %5)
  %.sroa.03.0.copyload8 = load double, ptr %7, align 8, !tbaa !90
  %.sroa.9.0.copyload12 = load double, ptr %.sroa.9.0..sroa_idx11, align 8, !tbaa !90
  %.sroa.11.0.copyload17 = load double, ptr %.sroa.11.0..sroa_idx16, align 8, !tbaa !90
  call void @llvm.lifetime.end.p0(i64 24, ptr nonnull %7) #13
  %26 = fcmp oeq double %.sroa.03.0.copyload8, 0x7FF0000000000000
  %.pre = load double, ptr %18, align 8, !tbaa !103
  br i1 %26, label %.critedge, label %27

27:                                               ; preds = %22
  %28 = tail call double @llvm.fmuladd.f64(double %3, double %.sroa.03.0.copyload8, double %25)
  %29 = load double, ptr %2, align 8, !tbaa !100
  %30 = fsub double %28, %29
  %31 = tail call double @llvm.fmuladd.f64(double %3, double %.sroa.9.0.copyload12, double %24)
  %32 = load double, ptr %14, align 8, !tbaa !102
  %33 = fsub double %31, %32
  %34 = tail call double @llvm.fmuladd.f64(double %12, double %.sroa.11.0.copyload17, double %23)
  %35 = fsub double %34, %.pre
  %36 = fadd double %25, %30
  store double %36, ptr %5, align 8, !tbaa !100
  %37 = fadd double %24, %33
  store double %37, ptr %17, align 8, !tbaa !102
  %38 = fadd double %23, %35
  store double %38, ptr %21, align 8, !tbaa !103
  %39 = add nsw i32 %.0, -1
  %.not = icmp eq i32 %39, 0
  br i1 %.not, label %.critedge, label %40

40:                                               ; preds = %27
  %41 = tail call double @hypot(double noundef %30, double noundef %33) #13, !tbaa !93
  %42 = fcmp ogt double %41, 1.000000e-08
  br i1 %42, label %22, label %.critedge, !llvm.loop !104

.critedge:                                        ; preds = %27, %22, %40
  %43 = tail call double @llvm.fmuladd.f64(double %12, double %.sroa.11.0.copyload, double %.pre)
  store double %43, ptr %21, align 8, !tbaa !103
  call void @llvm.memcpy.p0.p0.i64(ptr noundef nonnull align 8 dereferenceable(24) %0, ptr noundef nonnull align 8 dereferenceable(24) %5, i64 24, i1 false), !tbaa.struct !91
  br label %44

44:                                               ; preds = %.critedge, %9
  call void @llvm.lifetime.end.p0(i64 24, ptr nonnull %5) #13
  ret void
}